; Function Attrs: mustprogress nofree norecurse nosync nounwind willreturn memory(read, inaccessiblemem: none) uwtable
define internal noundef zeroext i1 @"_ZNSt17_Function_handlerIFbRKN4llvm13LegalityQueryEEZNS0_20AArch64LegalizerInfoC1ERKNS0_16AArch64SubtargetEE4$_24E9_M_invokeERKSt9_Any_dataS3_"(ptr nocapture nonnull readnone align 8 %0, ptr nocapture noundef nonnull readonly align 8 dereferenceable(40) %1) #11 align 2 {
  %3 = getelementptr inbounds i8, ptr %1, i64 8
  %.val = load ptr, ptr %3, align 8
  %4 = load i64, ptr %.val, align 8
  %5 = and i64 %4, 1
  %.not.i.i.i.i = icmp eq i64 %5, 0
  br i1 %.not.i.i.i.i, label %8, label %6

6:                                                ; preds = %2
  %7 = lshr i64 %4, 3
  br label %_ZNK4llvm3LLT19getScalarSizeInBitsEv.exit.i.i.i

8:                                                ; preds = %2
  %9 = and i64 %4, 4
  %.not1.i.i.i.i = icmp eq i64 %9, 0
  br i1 %.not1.i.i.i.i, label %14, label %10

10:                                               ; preds = %8
  %11 = and i64 %4, 2
  %.not2.i.i.i.i = icmp eq i64 %11, 0
  %12 = lshr i64 %4, 19
  %13 = and i64 %12, 65535
  %spec.select.i.i.i.i = select i1 %.not2.i.i.i.i, i64 %12, i64 %13
  br label %_ZNK4llvm3LLT19getScalarSizeInBitsEv.exit.i.i.i

14:                                               ; preds = %8
  %15 = lshr i64 %4, 3
  %16 = and i64 %15, 65535
  br label %_ZNK4llvm3LLT19getScalarSizeInBitsEv.exit.i.i.i

_ZNK4llvm3LLT19getScalarSizeInBitsEv.exit.i.i.i:  ; preds = %14, %10, %6
  %.0.in.i.i.i.i = phi i64 [ %7, %6 ], [ %16, %14 ], [ %spec.select.i.i.i.i, %10 ]
  %.0.i.i.i.i = trunc i64 %.0.in.i.i.i.i to i32
  %17 = getelementptr inbounds i8, ptr %.val, i64 8
  %18 = load i64, ptr %17, align 8
  %19 = and i64 %18, 1
  %.not.i5.i.i.i = icmp eq i64 %19, 0
  br i1 %.not.i5.i.i.i, label %22, label %20

20:                                               ; preds = %_ZNK4llvm3LLT19getScalarSizeInBitsEv.exit.i.i.i
  %21 = lshr i64 %18, 3
  br label %_ZNK4llvm3LLT19getScalarSizeInBitsEv.exit11.i.i.i

22:                                               ; preds = %_ZNK4llvm3LLT19getScalarSizeInBitsEv.exit.i.i.i
  %23 = and i64 %18, 4
  %.not1.i8.i.i.i = icmp eq i64 %23, 0
  br i1 %.not1.i8.i.i.i, label %28, label %24

24:                                               ; preds = %22
  %25 = and i64 %18, 2
  %.not2.i9.i.i.i = icmp eq i64 %25, 0
  %26 = lshr i64 %18, 19
  %27 = and i64 %26, 65535
  %spec.select.i10.i.i.i = select i1 %.not2.i9.i.i.i, i64 %26, i64 %27
  br label %_ZNK4llvm3LLT19getScalarSizeInBitsEv.exit11.i.i.i

28:                                               ; preds = %22
  %29 = lshr i64 %18, 3
  %30 = and i64 %29, 65535
  br label %_ZNK4llvm3LLT19getScalarSizeInBitsEv.exit11.i.i.i

_ZNK4llvm3LLT19getScalarSizeInBitsEv.exit11.i.i.i: ; preds = %28, %24, %20
  %.0.in.i6.i.i.i = phi i64 [ %21, %20 ], [ %30, %28 ], [ %spec.select.i10.i.i.i, %24 ]
  %.0.i7.i.i.i = trunc i64 %.0.in.i6.i.i.i to i32
  %31 = shl i32 %.0.i7.i.i.i, 1
  %32 = icmp ult i32 %31, %.0.i.i.i.i
  br i1 %32, label %33, label %"_ZSt10__invoke_rIbRZN4llvm20AArch64LegalizerInfoC1ERKNS0_16AArch64SubtargetEE4$_24JRKNS0_13LegalityQueryEEENSt9enable_ifIX16is_invocable_r_vIT_T0_DpT1_EESB_E4typeEOSC_DpOSD_.exit"

33:                                               ; preds = %_ZNK4llvm3LLT19getScalarSizeInBitsEv.exit11.i.i.i
  %34 = and i64 %4, -7
  %spec.select.i.i.i.i.i = icmp ne i64 %34, 0
  %35 = and i64 %4, 4
  %36 = icmp ne i64 %35, 0
  %37 = and i1 %spec.select.i.i.i.i.i, %36
  br i1 %37, label %38, label %"_ZSt10__invoke_rIbRZN4llvm20AArch64LegalizerInfoC1ERKNS0_16AArch64SubtargetEE4$_24JRKNS0_13LegalityQueryEEENSt9enable_ifIX16is_invocable_r_vIT_T0_DpT1_EESB_E4typeEOSC_DpOSD_.exit"

38:                                               ; preds = %33
  br i1 %.not.i5.i.i.i, label %39, label %_ZNK4llvm3LLT19getScalarSizeInBitsEv.exit18.thread.i.i.i

39:                                               ; preds = %38
  %40 = and i64 %18, 4
  %.not1.i15.i.i.i = icmp eq i64 %40, 0
  br i1 %.not1.i15.i.i.i, label %_ZNK4llvm3LLT19getScalarSizeInBitsEv.exit18.i.i.i, label %_ZNK4llvm3LLT19getScalarSizeInBitsEv.exit18.thread3.i.i.i

_ZNK4llvm3LLT19getScalarSizeInBitsEv.exit18.i.i.i: ; preds = %39
  %41 = and i64 %18, 524280
  %42 = icmp eq i64 %41, 64
  br i1 %42, label %"_ZSt10__invoke_rIbRZN4llvm20AArch64LegalizerInfoC1ERKNS0_16AArch64SubtargetEE4$_24JRKNS0_13LegalityQueryEEENSt9enable_ifIX16is_invocable_r_vIT_T0_DpT1_EESB_E4typeEOSC_DpOSD_.exit", label %51

_ZNK4llvm3LLT19getScalarSizeInBitsEv.exit18.thread3.i.i.i: ; preds = %39
  %43 = and i64 %18, 2
  %.not2.i16.i.i.i = icmp eq i64 %43, 0
  %44 = lshr i64 %18, 19
  %45 = and i64 %44, 65535
  %spec.select.i17.i.i.i = select i1 %.not2.i16.i.i.i, i64 %44, i64 %45
  %46 = and i64 %spec.select.i17.i.i.i, 4294967295
  %47 = icmp eq i64 %46, 8
  br i1 %47, label %"_ZSt10__invoke_rIbRZN4llvm20AArch64LegalizerInfoC1ERKNS0_16AArch64SubtargetEE4$_24JRKNS0_13LegalityQueryEEENSt9enable_ifIX16is_invocable_r_vIT_T0_DpT1_EESB_E4typeEOSC_DpOSD_.exit", label %_ZNK4llvm3LLT19getScalarSizeInBitsEv.exit25.i.i.i

_ZNK4llvm3LLT19getScalarSizeInBitsEv.exit18.thread.i.i.i: ; preds = %38
  %48 = and i64 %18, 34359738360
  %49 = icmp eq i64 %48, 64
  br i1 %49, label %"_ZSt10__invoke_rIbRZN4llvm20AArch64LegalizerInfoC1ERKNS0_16AArch64SubtargetEE4$_24JRKNS0_13LegalityQueryEEENSt9enable_ifIX16is_invocable_r_vIT_T0_DpT1_EESB_E4typeEOSC_DpOSD_.exit", label %.thread.i.i.i

.thread.i.i.i:                                    ; preds = %_ZNK4llvm3LLT19getScalarSizeInBitsEv.exit18.thread.i.i.i
  %50 = lshr i64 %18, 3
  br label %_ZNK4llvm3LLT19getScalarSizeInBitsEv.exit25.i.i.i

51:                                               ; preds = %_ZNK4llvm3LLT19getScalarSizeInBitsEv.exit18.i.i.i
  %52 = lshr i64 %18, 3
  %53 = and i64 %52, 65535
  br label %_ZNK4llvm3LLT19getScalarSizeInBitsEv.exit25.i.i.i

_ZNK4llvm3LLT19getScalarSizeInBitsEv.exit25.i.i.i: ; preds = %51, %.thread.i.i.i, %_ZNK4llvm3LLT19getScalarSizeInBitsEv.exit18.thread3.i.i.i
  %.0.in.i20.i.i.i = phi i64 [ %50, %.thread.i.i.i ], [ %53, %51 ], [ %spec.select.i17.i.i.i, %_ZNK4llvm3LLT19getScalarSizeInBitsEv.exit18.thread3.i.i.i ]
  %54 = and i64 %.0.in.i20.i.i.i, 4294967295
  %55 = icmp eq i64 %54, 16
  br label %"_ZSt10__invoke_rIbRZN4llvm20AArch64LegalizerInfoC1ERKNS0_16AArch64SubtargetEE4$_24JRKNS0_13LegalityQueryEEENSt9enable_ifIX16is_invocable_r_vIT_T0_DpT1_EESB_E4typeEOSC_DpOSD_.exit"

"_ZSt10__invoke_rIbRZN4llvm20AArch64LegalizerInfoC1ERKNS0_16AArch64SubtargetEE4$_24JRKNS0_13LegalityQueryEEENSt9enable_ifIX16is_invocable_r_vIT_T0_DpT1_EESB_E4typeEOSC_DpOSD_.exit": ; preds = %_ZNK4llvm3LLT19getScalarSizeInBitsEv.exit11.i.i.i, %33, %_ZNK4llvm3LLT19getScalarSizeInBitsEv.exit18.i.i.i, %_ZNK4llvm3LLT19getScalarSizeInBitsEv.exit18.thread3.i.i.i, %_ZNK4llvm3LLT19getScalarSizeInBitsEv.exit18.thread.i.i.i, %_ZNK4llvm3LLT19getScalarSizeInBitsEv.exit25.i.i.i
  %56 = phi i1 [ false, %33 ], [ false, %_ZNK4llvm3LLT19getScalarSizeInBitsEv.exit11.i.i.i ], [ true, %_ZNK4llvm3LLT19getScalarSizeInBitsEv.exit18.i.i.i ], [ %55, %_ZNK4llvm3LLT19getScalarSizeInBitsEv.exit25.i.i.i ], [ true, %_ZNK4llvm3LLT19getScalarSizeInBitsEv.exit18.thread.i.i.i ], [ true, %_ZNK4llvm3LLT19getScalarSizeInBitsEv.exit18.thread3.i.i.i ]
  ret i1 %56
}